target datalayout = "e-m:e-p270:32:32-p271:32:32-p272:64:64-i64:64-i128:128-f80:128-n8:16:32:64-S128"
target triple = "x86_64-pc-linux-gnu"

%struct.tr2_dst = type { i32, i32, i8 }

@.str.13 = private unnamed_addr constant [49 x i8] c"trace2: could not open '%s' for '%s' tracing: %s\00", align 1
@tr2_dst_want_warning.tr2env_dst_debug = internal global i32 -1, align 4

; Function Attrs: inlinehint nounwind willreturn memory(read) uwtable
define available_externally i32 @atoi(ptr noundef nonnull %0) #4 {
  %2 = alloca ptr, align 8
  store ptr %0, ptr %2, align 8, !tbaa !13
  %3 = load ptr, ptr %2, align 8, !tbaa !13
  %4 = call i64 @strtol(ptr noundef %3, ptr noundef null, i32 noundef 10) #10
  %5 = trunc i64 %4 to i32
  ret i32 %5
}

; Function Attrs: nounwind uwtable
define dso_local void @tr2_dst_trace_disable(ptr noundef %0) #0 {
  %2 = alloca ptr, align 8
  store ptr %0, ptr %2, align 8, !tbaa !4
  %3 = load ptr, ptr %2, align 8, !tbaa !4
  %4 = getelementptr inbounds nuw %struct.tr2_dst, ptr %3, i32 0, i32 2
  %5 = load i8, ptr %4, align 4
  %6 = lshr i8 %5, 1
  %7 = and i8 %6, 1
  %8 = zext i8 %7 to i32
  %9 = icmp ne i32 %8, 0
  br i1 %9, label %10, label %15

10:                                               ; preds = %1
  %11 = load ptr, ptr %2, align 8, !tbaa !4
  %12 = getelementptr inbounds nuw %struct.tr2_dst, ptr %11, i32 0, i32 1
  %13 = load i32, ptr %12, align 4, !tbaa !9
  %14 = call i32 @close(i32 noundef %13)
  br label %15

15:                                               ; preds = %10, %1
  %16 = load ptr, ptr %2, align 8, !tbaa !4
  %17 = getelementptr inbounds nuw %struct.tr2_dst, ptr %16, i32 0, i32 1
  store i32 0, ptr %17, align 4, !tbaa !9
  %18 = load ptr, ptr %2, align 8, !tbaa !4
  %19 = getelementptr inbounds nuw %struct.tr2_dst, ptr %18, i32 0, i32 2
  %20 = load i8, ptr %19, align 4
  %21 = and i8 %20, -2
  %22 = or i8 %21, 1
  store i8 %22, ptr %19, align 4
  %23 = load ptr, ptr %2, align 8, !tbaa !4
  %24 = getelementptr inbounds nuw %struct.tr2_dst, ptr %23, i32 0, i32 2
  %25 = load i8, ptr %24, align 4
  %26 = and i8 %25, -3
  %27 = or i8 %26, 0
  store i8 %27, ptr %24, align 4
  ret void
}

; Function Attrs: nounwind uwtable
define internal i32 @tr2_dst_want_warning() #0 {
  %1 = alloca ptr, align 8
  %2 = load i32, ptr @tr2_dst_want_warning.tr2env_dst_debug, align 4, !tbaa !21
  %3 = icmp eq i32 %2, -1
  br i1 %3, label %4, label %19

4:                                                ; preds = %0
  call void @llvm.lifetime.start.p0(i64 8, ptr %1) #10
  %5 = call ptr @tr2_sysenv_get(i32 noundef 2)
  store ptr %5, ptr %1, align 8, !tbaa !13
  %6 = load ptr, ptr %1, align 8, !tbaa !13
  %7 = icmp ne ptr %6, null
  br i1 %7, label %8, label %12

8:                                                ; preds = %4
  %9 = load ptr, ptr %1, align 8, !tbaa !13
  %10 = load i8, ptr %9, align 1, !tbaa !15
  %11 = icmp ne i8 %10, 0
  br i1 %11, label %13, label %12

12:                                               ; preds = %8, %4
  store i32 0, ptr @tr2_dst_want_warning.tr2env_dst_debug, align 4, !tbaa !21
  br label %18

13:                                               ; preds = %8
  %14 = load ptr, ptr %1, align 8, !tbaa !13
  %15 = call i32 @atoi(ptr noundef %14) #11
  %16 = icmp sgt i32 %15, 0
  %17 = zext i1 %16 to i32
  store i32 %17, ptr @tr2_dst_want_warning.tr2env_dst_debug, align 4, !tbaa !21
  br label %18

18:                                               ; preds = %13, %12
  call void @llvm.lifetime.end.p0(i64 8, ptr %1) #10
  br label %19

19:                                               ; preds = %18, %0
  %20 = load i32, ptr @tr2_dst_want_warning.tr2env_dst_debug, align 4, !tbaa !21
  ret i32 %20
}

; Function Attrs: nounwind uwtable
define internal i32 @tr2_dst_try_path(ptr noundef %0, ptr noundef %1) #0 {
  %3 = alloca i32, align 4
  %4 = alloca ptr, align 8
  %5 = alloca ptr, align 8
  %6 = alloca i32, align 4
  %7 = alloca i32, align 4
  store ptr %0, ptr %4, align 8, !tbaa !4
  store ptr %1, ptr %5, align 8, !tbaa !13
  call void @llvm.lifetime.start.p0(i64 4, ptr %6) #10
  %8 = load ptr, ptr %5, align 8, !tbaa !13
  %9 = call i32 (ptr, i32, ...) @open64(ptr noundef %8, i32 noundef 1089, i32 noundef 438)
  store i32 %9, ptr %6, align 4, !tbaa !21
  %10 = load i32, ptr %6, align 4, !tbaa !21
  %11 = icmp eq i32 %10, -1
  br i1 %11, label %12, label %26

12:                                               ; preds = %2
  %13 = call i32 @tr2_dst_want_warning()
  %14 = icmp ne i32 %13, 0
  br i1 %14, label %15, label %24

15:                                               ; preds = %12
  %16 = load ptr, ptr %5, align 8, !tbaa !13
  %17 = load ptr, ptr %4, align 8, !tbaa !4
  %18 = getelementptr inbounds nuw %struct.tr2_dst, ptr %17, i32 0, i32 0
  %19 = load i32, ptr %18, align 4, !tbaa !12
  %20 = call ptr @tr2_sysenv_display_name(i32 noundef %19)
  %21 = call ptr @__errno_location() #12
  %22 = load i32, ptr %21, align 4, !tbaa !21
  %23 = call ptr @strerror(i32 noundef %22) #10
  call void (ptr, ...) @warning(ptr noundef @.str.13, ptr noundef %16, ptr noundef %20, ptr noundef %23)
  br label %24

24:                                               ; preds = %15, %12
  %25 = load ptr, ptr %4, align 8, !tbaa !4
  call void @tr2_dst_trace_disable(ptr noundef %25)
  store i32 0, ptr %3, align 4
  store i32 1, ptr %7, align 4
  br label %43

26:                                               ; preds = %2
  %27 = load i32, ptr %6, align 4, !tbaa !21
  %28 = load ptr, ptr %4, align 8, !tbaa !4
  %29 = getelementptr inbounds nuw %struct.tr2_dst, ptr %28, i32 0, i32 1
  store i32 %27, ptr %29, align 4, !tbaa !9
  %30 = load ptr, ptr %4, align 8, !tbaa !4
  %31 = getelementptr inbounds nuw %struct.tr2_dst, ptr %30, i32 0, i32 2
  %32 = load i8, ptr %31, align 4
  %33 = and i8 %32, -3
  %34 = or i8 %33, 2
  store i8 %34, ptr %31, align 4
  %35 = load ptr, ptr %4, align 8, !tbaa !4
  %36 = getelementptr inbounds nuw %struct.tr2_dst, ptr %35, i32 0, i32 2
  %37 = load i8, ptr %36, align 4
  %38 = and i8 %37, -2
  %39 = or i8 %38, 1
  store i8 %39, ptr %36, align 4
  %40 = load ptr, ptr %4, align 8, !tbaa !4
  %41 = getelementptr inbounds nuw %struct.tr2_dst, ptr %40, i32 0, i32 1
  %42 = load i32, ptr %41, align 4, !tbaa !9
  store i32 %42, ptr %3, align 4
  store i32 1, ptr %7, align 4
  br label %43

43:                                               ; preds = %26, %24
  call void @llvm.lifetime.end.p0(i64 4, ptr %6) #10
  %44 = load i32, ptr %3, align 4
  ret i32 %44
}