; Function Attrs: nounwind uwtable
define internal fastcc range(i32 0, -1) i32 @tr2_dst_try_path(ptr noundef captures(none) %0, ptr noundef nonnull %1) unnamed_addr #0 {
  %3 = tail call i32 (ptr, i32, ...) @open64(ptr noundef nonnull %1, i32 noundef 1089, i32 noundef 438) #13
  %4 = icmp eq i32 %3, -1
  br i1 %4, label %5, label %37

5:                                                ; preds = %2
  %6 = load i32, ptr @tr2_dst_want_warning.tr2env_dst_debug, align 4, !tbaa !18
  %7 = icmp eq i32 %6, -1
  br i1 %7, label %8, label %tr2_dst_want_warning.exit

8:                                                ; preds = %5
  %9 = tail call ptr @tr2_sysenv_get(i32 noundef 2) #13
  %.not.i = icmp eq ptr %9, null
  br i1 %.not.i, label %17, label %10

10:                                               ; preds = %8
  %11 = load i8, ptr %9, align 1, !tbaa !10
  %.not3.i = icmp eq i8 %11, 0
  br i1 %.not3.i, label %17, label %12

12:                                               ; preds = %10
  %13 = tail call i64 @strtol(ptr noundef nonnull captures(none) %9, ptr noundef null, i32 noundef 10) #13
  %14 = trunc i64 %13 to i32
  %15 = icmp sgt i32 %14, 0
  %16 = zext i1 %15 to i32
  br label %17

17:                                               ; preds = %12, %10, %8
  %storemerge.i = phi i32 [ %16, %12 ], [ 0, %10 ], [ 0, %8 ]
  store i32 %storemerge.i, ptr @tr2_dst_want_warning.tr2env_dst_debug, align 4, !tbaa !18
  br label %tr2_dst_want_warning.exit

tr2_dst_want_warning.exit:                        ; preds = %5, %17
  %18 = phi i32 [ %storemerge.i, %17 ], [ %6, %5 ]
  %.not = icmp eq i32 %18, 0
  br i1 %.not, label %25, label %19

19:                                               ; preds = %tr2_dst_want_warning.exit
  %20 = load i32, ptr %0, align 4, !tbaa !9
  %21 = tail call ptr @tr2_sysenv_display_name(i32 noundef %20) #13
  %22 = tail call ptr @__errno_location() #16
  %23 = load i32, ptr %22, align 4, !tbaa !18
  %24 = tail call ptr @strerror(i32 noundef %23) #13
  tail call void (ptr, ...) @warning(ptr noundef nonnull @.str.13, ptr noundef nonnull %1, ptr noundef %21, ptr noundef %24) #13
  br label %25

25:                                               ; preds = %19, %tr2_dst_want_warning.exit
  %26 = getelementptr inbounds nuw i8, ptr %0, i64 8
  %27 = load i8, ptr %26, align 4
  %28 = and i8 %27, 2
  %.not.i11 = icmp eq i8 %28, 0
  br i1 %.not.i11, label %tr2_dst_trace_disable.exit, label %29

29:                                               ; preds = %25
  %30 = getelementptr inbounds nuw i8, ptr %0, i64 4
  %31 = load i32, ptr %30, align 4, !tbaa !4
  %32 = tail call i32 @close(i32 noundef %31) #13
  %.pre.i = load i8, ptr %26, align 4
  br label %tr2_dst_trace_disable.exit

tr2_dst_trace_disable.exit:                       ; preds = %25, %29
  %33 = phi i8 [ %.pre.i, %29 ], [ %27, %25 ]
  %34 = getelementptr inbounds nuw i8, ptr %0, i64 4
  store i32 0, ptr %34, align 4, !tbaa !4
  %35 = and i8 %33, -4
  %36 = or disjoint i8 %35, 1
  store i8 %36, ptr %26, align 4
  br label %42

37:                                               ; preds = %2
  %38 = getelementptr inbounds nuw i8, ptr %0, i64 4
  store i32 %3, ptr %38, align 4, !tbaa !4
  %39 = getelementptr inbounds nuw i8, ptr %0, i64 8
  %40 = load i8, ptr %39, align 4
  %41 = or i8 %40, 3
  store i8 %41, ptr %39, align 4
  br label %42

42:                                               ; preds = %37, %tr2_dst_trace_disable.exit
  %.0 = phi i32 [ 0, %tr2_dst_trace_disable.exit ], [ %3, %37 ]
  ret i32 %.0
}